; Function Attrs: nounwind uwtable
define ptr @l_Std_DHashMap_Internal_AssocList_get_x3f___at_Lean_Meta_Grind_markNestedProofsImpl_visit___spec__10___boxed(ptr noundef %0, ptr noundef %1) local_unnamed_addr #0 {
  br label %3

3:                                                ; preds = %32, %2
  %.017.i = phi ptr [ %1, %2 ], [ %34, %32 ]
  %4 = ptrtoint ptr %.017.i to i64
  %5 = and i64 %4, 1
  %.not.i.i = icmp eq i64 %5, 0
  br i1 %.not.i.i, label %9, label %6

6:                                                ; preds = %3
  %7 = lshr i64 %4, 1
  %8 = trunc i64 %7 to i32
  br label %lean_obj_tag.exit.i

9:                                                ; preds = %3
  %10 = getelementptr i8, ptr %.017.i, i64 4
  %.val.i.i = load i32, ptr %10, align 4
  %11 = lshr i32 %.val.i.i, 24
  br label %lean_obj_tag.exit.i

lean_obj_tag.exit.i:                              ; preds = %9, %6
  %.0.i.i = phi i32 [ %8, %6 ], [ %11, %9 ]
  %12 = icmp eq i32 %.0.i.i, 0
  br i1 %12, label %l_Std_DHashMap_Internal_AssocList_get_x3f___at_Lean_Meta_Grind_markNestedProofsImpl_visit___spec__10.exit, label %13

13:                                               ; preds = %lean_obj_tag.exit.i
  %14 = getelementptr inbounds nuw i8, ptr %.017.i, i64 8
  %15 = load ptr, ptr %14, align 8, !tbaa !10
  %.not.i8 = icmp eq ptr %15, %0
  br i1 %.not.i8, label %16, label %32

16:                                               ; preds = %13
  %17 = getelementptr inbounds nuw i8, ptr %.017.i, i64 16
  %18 = load ptr, ptr %17, align 8, !tbaa !10
  %19 = ptrtoint ptr %18 to i64
  %20 = and i64 %19, 1
  %.not26.i = icmp eq i64 %20, 0
  br i1 %.not26.i, label %21, label %lean_inc.exit.i

21:                                               ; preds = %16
  %.val.i19.i = load i32, ptr %18, align 4, !tbaa !4
  %22 = icmp sgt i32 %.val.i19.i, 0
  br i1 %22, label %23, label %25, !prof !9

23:                                               ; preds = %21
  %24 = add nuw i32 %.val.i19.i, 1
  store i32 %24, ptr %18, align 4, !tbaa !4
  br label %lean_inc.exit.i

25:                                               ; preds = %21
  %.not.i20.i = icmp eq i32 %.val.i19.i, 0
  br i1 %.not.i20.i, label %lean_inc.exit.i, label %26

26:                                               ; preds = %25
  tail call void @lean_inc_ref_cold(ptr noundef nonnull %18) #5
  br label %lean_inc.exit.i

lean_inc.exit.i:                                  ; preds = %26, %25, %23, %16
  tail call void @lean_inc_heartbeat() #5
  %27 = tail call noalias ptr @mi_malloc_small(i64 noundef 16) #5
  %28 = icmp eq ptr %27, null
  br i1 %28, label %29, label %.thread.i

29:                                               ; preds = %lean_inc.exit.i
  tail call void @lean_internal_panic_out_of_memory() #6
  unreachable

.thread.i:                                        ; preds = %lean_inc.exit.i
  %30 = getelementptr inbounds nuw i8, ptr %27, i64 4
  store i32 1, ptr %27, align 4, !tbaa !4
  store i32 16842768, ptr %30, align 4
  %31 = getelementptr inbounds nuw i8, ptr %27, i64 8
  store ptr %18, ptr %31, align 8, !tbaa !10
  br label %l_Std_DHashMap_Internal_AssocList_get_x3f___at_Lean_Meta_Grind_markNestedProofsImpl_visit___spec__10.exit

32:                                               ; preds = %13
  %33 = getelementptr inbounds nuw i8, ptr %.017.i, i64 24
  %34 = load ptr, ptr %33, align 8, !tbaa !10
  br label %3

l_Std_DHashMap_Internal_AssocList_get_x3f___at_Lean_Meta_Grind_markNestedProofsImpl_visit___spec__10.exit: ; preds = %lean_obj_tag.exit.i, %.thread.i
  %.1.i = phi ptr [ %27, %.thread.i ], [ inttoptr (i64 1 to ptr), %lean_obj_tag.exit.i ]
  %35 = ptrtoint ptr %1 to i64
  %36 = and i64 %35, 1
  %.not = icmp eq i64 %36, 0
  br i1 %.not, label %37, label %lean_dec.exit5

37:                                               ; preds = %l_Std_DHashMap_Internal_AssocList_get_x3f___at_Lean_Meta_Grind_markNestedProofsImpl_visit___spec__10.exit
  %38 = load i32, ptr %1, align 4, !tbaa !4
  %39 = icmp sgt i32 %38, 1
  br i1 %39, label %40, label %42, !prof !9

40:                                               ; preds = %37
  %41 = add nsw i32 %38, -1
  store i32 %41, ptr %1, align 4, !tbaa !4
  br label %lean_dec.exit5

42:                                               ; preds = %37
  %.not.i = icmp eq i32 %38, 0
  br i1 %.not.i, label %lean_dec.exit5, label %43

43:                                               ; preds = %42
  tail call void @lean_dec_ref_cold(ptr noundef nonnull %1) #5
  br label %lean_dec.exit5

lean_dec.exit5:                                   ; preds = %43, %42, %40, %l_Std_DHashMap_Internal_AssocList_get_x3f___at_Lean_Meta_Grind_markNestedProofsImpl_visit___spec__10.exit
  %44 = ptrtoint ptr %0 to i64
  %45 = and i64 %44, 1
  %.not9 = icmp eq i64 %45, 0
  br i1 %.not9, label %46, label %lean_dec.exit

46:                                               ; preds = %lean_dec.exit5
  %47 = load i32, ptr %0, align 4, !tbaa !4
  %48 = icmp sgt i32 %47, 1
  br i1 %48, label %49, label %51, !prof !9

49:                                               ; preds = %46
  %50 = add nsw i32 %47, -1
  store i32 %50, ptr %0, align 4, !tbaa !4
  br label %lean_dec.exit

51:                                               ; preds = %46
  %.not.i6 = icmp eq i32 %47, 0
  br i1 %.not.i6, label %lean_dec.exit, label %52

52:                                               ; preds = %51
  tail call void @lean_dec_ref_cold(ptr noundef nonnull %0) #5
  br label %lean_dec.exit

lean_dec.exit:                                    ; preds = %52, %51, %49, %lean_dec.exit5
  ret ptr %.1.i
}